target datalayout = "e-m:e-p270:32:32-p271:32:32-p272:64:64-i64:64-i128:128-f80:128-n8:16:32:64-S128"
target triple = "x86_64-pc-linux-gnu"

%"class.std::__cxx11::basic_string" = type { %"struct.std::__cxx11::basic_string<char>::_Alloc_hider", i64, %union.anon }
%"struct.std::__cxx11::basic_string<char>::_Alloc_hider" = type { ptr }
%union.anon = type { i64, [8 x i8] }
%struct.BuildLog = type <{ %"class.emhash8::HashMap", ptr, %"class.std::__cxx11::basic_string", i8, [7 x i8] }>
%"class.emhash8::HashMap" = type <{ ptr, ptr, [4 x i8], i32, i32, i32, i32, i32, i32, [4 x i8] }>

; Function Attrs: mustprogress uwtable
define dso_local void @_ZN8BuildLog5CloseEv(ptr noundef nonnull align 8 dereferenceable(89) %0) #2 align 2 {
  %2 = alloca ptr, align 8
  store ptr %0, ptr %2, align 8, !tbaa !28
  %3 = load ptr, ptr %2, align 8
  %4 = call noundef zeroext i1 @_ZN8BuildLog20OpenForWriteIfNeededEv(ptr noundef nonnull align 8 dereferenceable(89) %3)
  %5 = getelementptr inbounds nuw %struct.BuildLog, ptr %3, i32 0, i32 1
  %6 = load ptr, ptr %5, align 8, !tbaa !30
  %7 = icmp ne ptr %6, null
  br i1 %7, label %8, label %12

8:                                                ; preds = %1
  %9 = getelementptr inbounds nuw %struct.BuildLog, ptr %3, i32 0, i32 1
  %10 = load ptr, ptr %9, align 8, !tbaa !30
  %11 = call i32 @fclose(ptr noundef %10)
  br label %12

12:                                               ; preds = %8, %1
  %13 = getelementptr inbounds nuw %struct.BuildLog, ptr %3, i32 0, i32 1
  store ptr null, ptr %13, align 8, !tbaa !30
  ret void
}