; Function Attrs: mustprogress uwtable
define dso_local void @_ZN8BuildLog5CloseEv(ptr noundef nonnull align 8 captures(none) dereferenceable(89) %0) local_unnamed_addr #2 align 2 {
  %2 = tail call noundef zeroext i1 @_ZN8BuildLog20OpenForWriteIfNeededEv(ptr noundef nonnull align 8 dereferenceable(89) %0)
  %3 = getelementptr inbounds nuw i8, ptr %0, i64 48
  %4 = load ptr, ptr %3, align 8, !tbaa !31
  %.not = icmp eq ptr %4, null
  br i1 %.not, label %7, label %5

5:                                                ; preds = %1
  %6 = tail call i32 @fclose(ptr noundef nonnull %4)
  br label %7

7:                                                ; preds = %5, %1
  store ptr null, ptr %3, align 8, !tbaa !31
  ret void
}